/*
 * Intel ACPI Component Architecture
 * AML Disassembler version 20140424-64 [May  4 2014]
 * Copyright (c) 2000 - 2014 Intel Corporation
 * 
 * Disassembly of mcfg.dat, Wed Jul 16 15:48:29 2014
 *
 * ACPI Data Table [MCFG]
 *
 * Format: [HexOffset DecimalOffset ByteLength]  FieldName : FieldValue
 */

[000h 0000   4]                    Signature : "MCFG"    [Memory Mapped Configuration table]
[004h 0004   4]                 Table Length : 0000003C
[008h 0008   1]                     Revision : 01
[009h 0009   1]                     Checksum : 17
[00Ah 0010   6]                       Oem ID : "LENOVO"
[010h 0016   8]                 Oem Table ID : "CB-01   "
[018h 0024   4]                 Oem Revision : 00000001
[01Ch 0028   4]              Asl Compiler ID : "PTL "
[020h 0032   4]        Asl Compiler Revision : 00000001

[024h 0036   8]                     Reserved : 0000000000000000

[02Ch 0044   8]                 Base Address : 00000000F8000000
[034h 0052   2]         Segment Group Number : 0000
[036h 0054   1]             Start Bus Number : 00
[037h 0055   1]               End Bus Number : 3F
[038h 0056   4]                     Reserved : 00000000

Raw Table Data: Length 60 (0x3C)

  0000: 4D 43 46 47 3C 00 00 00 01 17 4C 45 4E 4F 56 4F  MCFG<.....LENOVO
  0010: 43 42 2D 30 31 20 20 20 01 00 00 00 50 54 4C 20  CB-01   ....PTL 
  0020: 01 00 00 00 00 00 00 00 00 00 00 00 00 00 00 F8  ................
  0030: 00 00 00 00 00 00 00 3F 00 00 00 00              .......?....
